; Function Attrs: mustprogress uwtable
define void @_ZN11OpenImageIO6v3_1_011ColorConfigC2ENS0_17basic_string_viewIcSt11char_traitsIcEEE(ptr noundef nonnull align 8 dereferenceable(8) initializes((0, 8)) %0, ptr noundef readonly captures(none) %1) unnamed_addr #5 align 2 personality ptr @__gxx_personality_v0 {
  %3 = alloca %"class.OpenImageIO::v3_1_0::basic_string_view", align 8
  store ptr null, ptr %0, align 8, !tbaa !137
  %4 = load ptr, ptr %1, align 8, !tbaa !4
  store ptr %4, ptr %3, align 8, !tbaa !4
  %5 = getelementptr inbounds nuw i8, ptr %3, i64 8
  %6 = getelementptr inbounds nuw i8, ptr %1, i64 8
  %7 = load i64, ptr %6, align 8, !tbaa !11
  store i64 %7, ptr %5, align 8, !tbaa !11
  %8 = invoke noundef zeroext i1 @_ZN11OpenImageIO6v3_1_011ColorConfig5resetENS0_17basic_string_viewIcSt11char_traitsIcEEE(ptr noundef nonnull align 8 dereferenceable(8) %0, ptr noundef nonnull %3)
          to label %9 unwind label %10

9:                                                ; preds = %2
  ret void

10:                                               ; preds = %2
  %11 = landingpad { ptr, i32 }
          cleanup
  tail call void @_ZNSt10unique_ptrIN11OpenImageIO6v3_1_011ColorConfig4ImplESt14default_deleteIS3_EED2Ev(ptr noundef nonnull align 8 dereferenceable(8) %0) #34
  resume { ptr, i32 } %11
}